#include <math.h>
#include <stdio.h>
#include <stdlib.h>
#include <string.h>

int main(){
    char s[100],a[100],b[100];
    int i,l1,l2,e=0;
    gets(s);
    scanf("%s %s",a,b);
    getchar();
    l1=strlen(s);
    l2=strlen(a);
    for(i=0;i<l1;i++){
      if(i==0){
         if(a[0]==s[i]&&a[l2-1]==s[i+l2-1]&&s[i+l2]==' '){
              printf("%s", b);
              i +=l2-1;
         }else {
               printf("%c", s[i]);
               
         }
      }else{
          if(a[0]==s[i]&&a[l2-1]==s[i+l2-1]&&s[i-1]==' '){
              printf("%s", b);
              i +=l2-1;
         }else {
               printf("%c", s[i]);
               
         }  
      }
    }
    printf("\n");
    getchar();
    return 0;
}

